target datalayout = "e-m:e-p270:32:32-p271:32:32-p272:64:64-i64:64-i128:128-f80:128-n8:16:32:64-S128"
target triple = "x86_64-pc-linux-gnu"

@.str.34 = private unnamed_addr constant [11 x i8] c"guidPrefix\00", align 1
@ett_rtps_guid_prefix = internal global i32 0, align 4
@ett_rtps_app_id = internal global i32 0, align 4
@.str.1117 = private unnamed_addr constant [52 x i8] c"%s=%08x %08x { hostId=%08x, appId=%08x (%s: %06x) }\00", align 1
@.str.1118 = private unnamed_addr constant [5 x i8] c"%02x\00", align 1

; Function Attrs: null_pointer_is_valid sspstrong uwtable
define internal void @rtps_util_add_guid_prefix_v1(ptr noundef %0, ptr noundef %1, i32 noundef %2, i32 noundef %3, i32 noundef %4, i32 noundef %5, i32 noundef %6, i32 noundef %7, ptr noundef %8) #0 {
  %10 = alloca ptr, align 8
  %11 = alloca ptr, align 8
  %12 = alloca i32, align 4
  %13 = alloca i32, align 4
  %14 = alloca i32, align 4
  %15 = alloca i32, align 4
  %16 = alloca i32, align 4
  %17 = alloca i32, align 4
  %18 = alloca ptr, align 8
  %19 = alloca i64, align 8
  %20 = alloca i32, align 4
  %21 = alloca i32, align 4
  %22 = alloca i32, align 4
  %23 = alloca i8, align 1
  %24 = alloca ptr, align 8
  %25 = alloca ptr, align 8
  %26 = alloca ptr, align 8
  %27 = alloca ptr, align 8
  store ptr %0, ptr %10, align 8
  store ptr %1, ptr %11, align 8
  store i32 %2, ptr %12, align 4
  store i32 %3, ptr %13, align 4
  store i32 %4, ptr %14, align 4
  store i32 %5, ptr %15, align 4
  store i32 %6, ptr %16, align 4
  store i32 %7, ptr %17, align 4
  store ptr %8, ptr %18, align 8
  call void @llvm.lifetime.start.p0(i64 8, ptr %19) #14
  call void @llvm.lifetime.start.p0(i64 4, ptr %20) #14
  call void @llvm.lifetime.start.p0(i64 4, ptr %21) #14
  call void @llvm.lifetime.start.p0(i64 4, ptr %22) #14
  call void @llvm.lifetime.start.p0(i64 1, ptr %23) #14
  call void @llvm.lifetime.start.p0(i64 8, ptr %24) #14
  call void @llvm.lifetime.start.p0(i64 8, ptr %25) #14
  call void @llvm.lifetime.start.p0(i64 8, ptr %26) #14
  call void @llvm.lifetime.start.p0(i64 8, ptr %27) #14
  %28 = load ptr, ptr %18, align 8
  %29 = icmp eq ptr %28, null
  br i1 %29, label %30, label %31

30:                                               ; preds = %9
  br label %33

31:                                               ; preds = %9
  %32 = load ptr, ptr %18, align 8
  br label %33

33:                                               ; preds = %31, %30
  %34 = phi ptr [ @.str.34, %30 ], [ %32, %31 ]
  store ptr %34, ptr %27, align 8
  %35 = load ptr, ptr %11, align 8
  %36 = load i32, ptr %12, align 4
  %37 = call i64 @tvb_get_ntoh64(ptr noundef %35, i32 noundef %36)
  store i64 %37, ptr %19, align 8
  %38 = load ptr, ptr %11, align 8
  %39 = load i32, ptr %12, align 4
  %40 = call i32 @tvb_get_ntohl(ptr noundef %38, i32 noundef %39)
  store i32 %40, ptr %20, align 4
  %41 = load ptr, ptr %11, align 8
  %42 = load i32, ptr %12, align 4
  %43 = add i32 %42, 4
  %44 = call i32 @tvb_get_ntohl(ptr noundef %41, i32 noundef %43)
  store i32 %44, ptr %21, align 4
  %45 = load i32, ptr %21, align 4
  %46 = lshr i32 %45, 8
  store i32 %46, ptr %22, align 4
  %47 = load i32, ptr %21, align 4
  %48 = and i32 %47, 255
  %49 = trunc i32 %48 to i8
  store i8 %49, ptr %23, align 1
  %50 = load ptr, ptr %10, align 8
  %51 = icmp ne ptr %50, null
  br i1 %51, label %52, label %97

52:                                               ; preds = %33
  %53 = load ptr, ptr %10, align 8
  %54 = load i32, ptr %13, align 4
  %55 = load ptr, ptr %11, align 8
  %56 = load i32, ptr %12, align 4
  %57 = load i64, ptr %19, align 8
  %58 = load ptr, ptr %27, align 8
  %59 = load i32, ptr %20, align 4
  %60 = load i32, ptr %21, align 4
  %61 = load i32, ptr %20, align 4
  %62 = load i32, ptr %21, align 4
  %63 = load i8, ptr %23, align 1
  %64 = zext i8 %63 to i32
  %65 = call ptr @val_to_str(i32 noundef %64, ptr noundef @app_kind_vals, ptr noundef @.str.1118)
  %66 = load i32, ptr %22, align 4
  %67 = call ptr (ptr, i32, ptr, i32, i32, i64, ptr, ...) @proto_tree_add_uint64_format(ptr noundef %53, i32 noundef %54, ptr noundef %55, i32 noundef %56, i32 noundef 8, i64 noundef %57, ptr noundef @.str.1117, ptr noundef %58, i32 noundef %59, i32 noundef %60, i32 noundef %61, i32 noundef %62, ptr noundef %65, i32 noundef %66)
  store ptr %67, ptr %24, align 8
  %68 = load ptr, ptr %24, align 8
  %69 = load i32, ptr @ett_rtps_guid_prefix, align 4
  %70 = call ptr @proto_item_add_subtree(ptr noundef %68, i32 noundef %69)
  store ptr %70, ptr %25, align 8
  %71 = load ptr, ptr %25, align 8
  %72 = load i32, ptr %14, align 4
  %73 = load ptr, ptr %11, align 8
  %74 = load i32, ptr %12, align 4
  %75 = call ptr @proto_tree_add_item(ptr noundef %71, i32 noundef %72, ptr noundef %73, i32 noundef %74, i32 noundef 4, i32 noundef 0)
  %76 = load ptr, ptr %25, align 8
  %77 = load i32, ptr %15, align 4
  %78 = load ptr, ptr %11, align 8
  %79 = load i32, ptr %12, align 4
  %80 = add i32 %79, 4
  %81 = call ptr @proto_tree_add_item(ptr noundef %76, i32 noundef %77, ptr noundef %78, i32 noundef %80, i32 noundef 4, i32 noundef 0)
  store ptr %81, ptr %24, align 8
  %82 = load ptr, ptr %24, align 8
  %83 = load i32, ptr @ett_rtps_app_id, align 4
  %84 = call ptr @proto_item_add_subtree(ptr noundef %82, i32 noundef %83)
  store ptr %84, ptr %26, align 8
  %85 = load ptr, ptr %26, align 8
  %86 = load i32, ptr %16, align 4
  %87 = load ptr, ptr %11, align 8
  %88 = load i32, ptr %12, align 4
  %89 = add i32 %88, 4
  %90 = call ptr @proto_tree_add_item(ptr noundef %85, i32 noundef %86, ptr noundef %87, i32 noundef %89, i32 noundef 3, i32 noundef 0)
  %91 = load ptr, ptr %26, align 8
  %92 = load i32, ptr %17, align 4
  %93 = load ptr, ptr %11, align 8
  %94 = load i32, ptr %12, align 4
  %95 = add i32 %94, 7
  %96 = call ptr @proto_tree_add_item(ptr noundef %91, i32 noundef %92, ptr noundef %93, i32 noundef %95, i32 noundef 1, i32 noundef 0)
  br label %97

97:                                               ; preds = %52, %33
  call void @llvm.lifetime.end.p0(i64 8, ptr %27) #14
  call void @llvm.lifetime.end.p0(i64 8, ptr %26) #14
  call void @llvm.lifetime.end.p0(i64 8, ptr %25) #14
  call void @llvm.lifetime.end.p0(i64 8, ptr %24) #14
  call void @llvm.lifetime.end.p0(i64 1, ptr %23) #14
  call void @llvm.lifetime.end.p0(i64 4, ptr %22) #14
  call void @llvm.lifetime.end.p0(i64 4, ptr %21) #14
  call void @llvm.lifetime.end.p0(i64 4, ptr %20) #14
  call void @llvm.lifetime.end.p0(i64 8, ptr %19) #14
  ret void
}