; Function Attrs: null_pointer_is_valid sspstrong uwtable
define internal fastcc void @rtps_util_add_guid_prefix_v1(ptr noundef %0, ptr noundef %1, i32 noundef %2, i32 noundef %3, i32 noundef %4, i32 noundef %5, i32 noundef %6, i32 noundef %7, ptr noundef %8) unnamed_addr #0 {
  %10 = tail call i64 @tvb_get_ntoh64(ptr noundef %1, i32 noundef %2)
  %11 = tail call i32 @tvb_get_ntohl(ptr noundef %1, i32 noundef %2)
  %12 = add i32 %2, 4
  %13 = tail call i32 @tvb_get_ntohl(ptr noundef %1, i32 noundef %12)
  %.not = icmp eq ptr %0, null
  br i1 %.not, label %30, label %14

14:                                               ; preds = %9
  %15 = lshr i32 %13, 8
  %16 = icmp eq ptr %8, null
  %17 = select i1 %16, ptr @.str.34, ptr %8
  %18 = and i32 %13, 255
  %19 = tail call ptr @val_to_str(i32 noundef %18, ptr noundef nonnull @app_kind_vals, ptr noundef nonnull @.str.1118)
  %20 = tail call ptr (ptr, i32, ptr, i32, i32, i64, ptr, ...) @proto_tree_add_uint64_format(ptr noundef nonnull %0, i32 noundef %3, ptr noundef %1, i32 noundef %2, i32 noundef 8, i64 noundef %10, ptr noundef nonnull @.str.1117, ptr noundef nonnull %17, i32 noundef %11, i32 noundef %13, i32 noundef %11, i32 noundef %13, ptr noundef %19, i32 noundef %15)
  %21 = load i32, ptr @ett_rtps_guid_prefix, align 4
  %22 = tail call ptr @proto_item_add_subtree(ptr noundef %20, i32 noundef %21)
  %23 = tail call ptr @proto_tree_add_item(ptr noundef %22, i32 noundef %4, ptr noundef %1, i32 noundef %2, i32 noundef 4, i32 noundef 0)
  %24 = tail call ptr @proto_tree_add_item(ptr noundef %22, i32 noundef %5, ptr noundef %1, i32 noundef %12, i32 noundef 4, i32 noundef 0)
  %25 = load i32, ptr @ett_rtps_app_id, align 4
  %26 = tail call ptr @proto_item_add_subtree(ptr noundef %24, i32 noundef %25)
  %27 = tail call ptr @proto_tree_add_item(ptr noundef %26, i32 noundef %6, ptr noundef %1, i32 noundef %12, i32 noundef 3, i32 noundef 0)
  %28 = add i32 %2, 7
  %29 = tail call ptr @proto_tree_add_item(ptr noundef %26, i32 noundef %7, ptr noundef %1, i32 noundef %28, i32 noundef 1, i32 noundef 0)
  br label %30

30:                                               ; preds = %14, %9
  ret void
}